target datalayout = "e-m:e-p270:32:32-p271:32:32-p272:64:64-i64:64-i128:128-f80:128-n8:16:32:64-S128"
target triple = "x86_64-pc-linux-gnu"

%struct._lv_bar_t = type { %struct._lv_obj_t, i32, i32, i32, i32, %struct.lv_area_t, i8, %struct._lv_bar_anim_t, %struct._lv_bar_anim_t, i8 }
%struct._lv_obj_t = type { ptr, ptr, ptr, ptr, ptr, %struct.lv_area_t, i32, i16, i16 }
%struct.lv_area_t = type { i32, i32, i32, i32 }
%struct._lv_bar_anim_t = type { ptr, i32, i32, i32 }

; Function Attrs: nounwind uwtable
define zeroext i1 @lv_bar_is_symmetrical(ptr noundef %0) #0 {
  %2 = alloca ptr, align 8
  %3 = alloca ptr, align 8
  store ptr %0, ptr %2, align 8, !tbaa !3
  br label %4

4:                                                ; preds = %1
  br label %5

5:                                                ; preds = %4
  call void @llvm.lifetime.start.p0(i64 8, ptr %3) #5
  %6 = load ptr, ptr %2, align 8, !tbaa !3
  store ptr %6, ptr %3, align 8, !tbaa !3
  %7 = load ptr, ptr %3, align 8, !tbaa !3
  %8 = getelementptr inbounds nuw %struct._lv_bar_t, ptr %7, i32 0, i32 9
  %9 = load i8, ptr %8, align 8
  %10 = and i8 %9, 7
  %11 = zext i8 %10 to i32
  %12 = icmp eq i32 %11, 1
  br i1 %12, label %13, label %31

13:                                               ; preds = %5
  %14 = load ptr, ptr %3, align 8, !tbaa !3
  %15 = getelementptr inbounds nuw %struct._lv_bar_t, ptr %14, i32 0, i32 2
  %16 = load i32, ptr %15, align 4, !tbaa !7
  %17 = icmp slt i32 %16, 0
  br i1 %17, label %18, label %31

18:                                               ; preds = %13
  %19 = load ptr, ptr %3, align 8, !tbaa !3
  %20 = getelementptr inbounds nuw %struct._lv_bar_t, ptr %19, i32 0, i32 3
  %21 = load i32, ptr %20, align 8, !tbaa !15
  %22 = icmp sgt i32 %21, 0
  br i1 %22, label %23, label %31

23:                                               ; preds = %18
  %24 = load ptr, ptr %3, align 8, !tbaa !3
  %25 = getelementptr inbounds nuw %struct._lv_bar_t, ptr %24, i32 0, i32 4
  %26 = load i32, ptr %25, align 4, !tbaa !16
  %27 = load ptr, ptr %3, align 8, !tbaa !3
  %28 = getelementptr inbounds nuw %struct._lv_bar_t, ptr %27, i32 0, i32 2
  %29 = load i32, ptr %28, align 4, !tbaa !7
  %30 = icmp eq i32 %26, %29
  br label %31

31:                                               ; preds = %23, %18, %13, %5
  %32 = phi i1 [ false, %18 ], [ false, %13 ], [ false, %5 ], [ %30, %23 ]
  call void @llvm.lifetime.end.p0(i64 8, ptr %3) #5
  ret i1 %32
}