; Function Attrs: mustprogress nofree norecurse nosync nounwind willreturn memory(argmem: read) uwtable
define zeroext i1 @lv_bar_is_symmetrical(ptr nocapture noundef readonly %0) local_unnamed_addr #3 {
  %2 = getelementptr inbounds nuw i8, ptr %0, i64 152
  %3 = load i8, ptr %2, align 8
  %4 = and i8 %3, 7
  %5 = icmp eq i8 %4, 1
  br i1 %5, label %6, label %18

6:                                                ; preds = %1
  %7 = getelementptr inbounds nuw i8, ptr %0, i64 68
  %8 = load i32, ptr %7, align 4, !tbaa !3
  %9 = icmp slt i32 %8, 0
  br i1 %9, label %10, label %18

10:                                               ; preds = %6
  %11 = getelementptr inbounds nuw i8, ptr %0, i64 72
  %12 = load i32, ptr %11, align 8, !tbaa !14
  %13 = icmp sgt i32 %12, 0
  br i1 %13, label %14, label %18

14:                                               ; preds = %10
  %15 = getelementptr inbounds nuw i8, ptr %0, i64 76
  %16 = load i32, ptr %15, align 4, !tbaa !21
  %17 = icmp eq i32 %16, %8
  br label %18

18:                                               ; preds = %14, %10, %6, %1
  %19 = phi i1 [ false, %10 ], [ false, %6 ], [ false, %1 ], [ %17, %14 ]
  ret i1 %19
}